

Microchip MPLAB XC8 Assembler V2.10 build 88905656 
                                                                                               Mon Feb 17 16:10:49 2020

Microchip MPLAB XC8 C Compiler v2.10 (Free license) build 20190730164152 Og1 
     1                           	processor	12F675
     2                           	opt	pw 120
     3                           	opt	flic
     4                           	psect	cinit,global,class=CODE,merge=1,delta=2
     5                           	psect	bssBANK0,global,class=BANK0,space=1,delta=1
     6                           	psect	cstackCOMMON,global,class=COMMON,space=1,delta=1
     7                           	psect	cstackBANK0,global,class=BANK0,space=1,delta=1
     8                           	psect	maintext,global,class=CODE,split=1,delta=2
     9                           	psect	text1,local,class=CODE,merge=1,delta=2
    10                           	psect	text2,local,class=CODE,merge=1,delta=2
    11                           	psect	text3,local,class=CODE,merge=1,delta=2
    12                           	psect	text4,local,class=CODE,merge=1,delta=2
    13                           	psect	text5,local,class=CODE,merge=1,delta=2
    14                           	psect	text6,local,class=CODE,merge=1,delta=2
    15                           	psect	text7,local,class=CODE,merge=1,delta=2
    16                           	psect	intentry,global,class=CODE,delta=2
    17                           	psect	text8,local,class=CODE,merge=1,delta=2
    18                           	dabs	1,0x5E,2
    19  0000                     
    20                           ; Version 2.10
    21                           ; Generated 31/07/2019 GMT
    22                           ; 
    23                           ; Copyright © 2019, Microchip Technology Inc. and its subsidiaries ("Microchip")
    24                           ; All rights reserved.
    25                           ; 
    26                           ; This software is developed by Microchip Technology Inc. and its subsidiaries ("Microch
      +                          ip").
    27                           ; 
    28                           ; Redistribution and use in source and binary forms, with or without modification, are
    29                           ; permitted provided that the following conditions are met:
    30                           ; 
    31                           ;     1. Redistributions of source code must retain the above copyright notice, this lis
      +                          t of
    32                           ;        conditions and the following disclaimer.
    33                           ; 
    34                           ;     2. Redistributions in binary form must reproduce the above copyright notice, this 
      +                          list
    35                           ;        of conditions and the following disclaimer in the documentation and/or other
    36                           ;        materials provided with the distribution.
    37                           ; 
    38                           ;     3. Microchip's name may not be used to endorse or promote products derived from th
      +                          is
    39                           ;        software without specific prior written permission.
    40                           ; 
    41                           ; THIS SOFTWARE IS PROVIDED BY MICROCHIP "AS IS" AND ANY EXPRESS OR IMPLIED WARRANTIES,
    42                           ; INCLUDING, BUT NOT LIMITED TO, THE IMPLIED WARRANTIES OF MERCHANTABILITY AND FITNESS F
      +                          OR
    43                           ; PURPOSE ARE DISCLAIMED.  IN NO EVENT SHALL MICROCHIP BE LIABLE FOR ANY DIRECT, INDIREC
      +                          T,
    44                           ; INCIDENTAL, SPECIAL, EXEMPLARY, OR CONSEQUENTIAL DAMAGES (INCLUDING BUT NOT LIMITED TO
    45                           ; PROCUREMENT OF SUBSTITUTE GOODS OR SERVICES; LOSS OF USE, DATA OR PROFITS; OR BUSINESS
    46                           ; INTERRUPTION) HOWSOEVER CAUSED AND ON ANY THEORY OF LIABILITY, WHETHER IN CONTRACT, ST
      +                          RICT
    47                           ; LIABILITY, OR TORT (INCLUDING NEGLIGENCE OR OTHERWISE) ARISING IN ANY WAY OUT OF THE U
      +                          SE OF
    48                           ; THIS SOFTWARE, EVEN IF ADVISED OF THE POSSIBILITY OF SUCH DAMAGE.
    49                           ; 
    50                           ; 
    51                           ; Code-generator required, PIC12F675 Definitions
    52                           ; 
    53                           ; SFR Addresses
    54  0000                     	;# 
    55  0001                     	;# 
    56  0002                     	;# 
    57  0003                     	;# 
    58  0004                     	;# 
    59  0005                     	;# 
    60  000A                     	;# 
    61  000B                     	;# 
    62  000C                     	;# 
    63  000E                     	;# 
    64  000E                     	;# 
    65  000F                     	;# 
    66  0010                     	;# 
    67  0019                     	;# 
    68  001E                     	;# 
    69  001F                     	;# 
    70  0081                     	;# 
    71  0085                     	;# 
    72  008C                     	;# 
    73  008E                     	;# 
    74  0090                     	;# 
    75  0095                     	;# 
    76  0096                     	;# 
    77  0096                     	;# 
    78  0099                     	;# 
    79  009A                     	;# 
    80  009A                     	;# 
    81  009B                     	;# 
    82  009C                     	;# 
    83  009D                     	;# 
    84  009E                     	;# 
    85  009F                     	;# 
    86  0000                     	;# 
    87  0001                     	;# 
    88  0002                     	;# 
    89  0003                     	;# 
    90  0004                     	;# 
    91  0005                     	;# 
    92  000A                     	;# 
    93  000B                     	;# 
    94  000C                     	;# 
    95  000E                     	;# 
    96  000E                     	;# 
    97  000F                     	;# 
    98  0010                     	;# 
    99  0019                     	;# 
   100  001E                     	;# 
   101  001F                     	;# 
   102  0081                     	;# 
   103  0085                     	;# 
   104  008C                     	;# 
   105  008E                     	;# 
   106  0090                     	;# 
   107  0095                     	;# 
   108  0096                     	;# 
   109  0096                     	;# 
   110  0099                     	;# 
   111  009A                     	;# 
   112  009A                     	;# 
   113  009B                     	;# 
   114  009C                     	;# 
   115  009D                     	;# 
   116  009E                     	;# 
   117  009F                     	;# 
   118  000F                     _TMR1H	set	15
   119  000E                     _TMR1L	set	14
   120  0010                     _T1CON	set	16
   121  0019                     _CMCON	set	25
   122  0058                     _GPIF	set	88
   123  0028                     _GP0	set	40
   124  0080                     _TMR1ON	set	128
   125  0060                     _TMR1IF	set	96
   126  005E                     _PEIE	set	94
   127  005B                     _GPIE	set	91
   128  005F                     _GIE	set	95
   129  002D                     _GP5	set	45
   130  002C                     _GP4	set	44
   131  002A                     _GP2	set	42
   132  0029                     _GP1	set	41
   133  0095                     _WPU	set	149
   134  0085                     _TRISIO	set	133
   135  009F                     _ANSEL	set	159
   136  0460                     _TMR1IE	set	1120
   137  04B0                     _IOC0	set	1200
   138                           
   139                           ; #config settings
   140  0000                     
   141                           	psect	cinit
   142  000E                     start_initialization:	
   143  000E                     __initialization:	
   144                           
   145                           ; Clear objects allocated to BANK0
   146  000E  1283               	bcf	3,5	;RP0=0, select bank0
   147  000F  01AD               	clrf	__pbssBANK0& (0+127)
   148  0010  01AE               	clrf	(__pbssBANK0+1)& (0+127)
   149  0011  01AF               	clrf	(__pbssBANK0+2)& (0+127)
   150  0012  01B0               	clrf	(__pbssBANK0+3)& (0+127)
   151  0013  01B1               	clrf	(__pbssBANK0+4)& (0+127)
   152  0014  01B2               	clrf	(__pbssBANK0+5)& (0+127)
   153  0015  01B3               	clrf	(__pbssBANK0+6)& (0+127)
   154  0016                     end_of_initialization:	
   155                           ;End of C runtime variable initialization code
   156                           
   157  0016                     __end_of__initialization:	
   158  0016  0183               	clrf	3
   159  0017  29A4               	ljmp	_main	;jump to C main() function
   160                           
   161                           	psect	bssBANK0
   162  002D                     __pbssBANK0:	
   163  002D                     _count_button_press2:	
   164  002D                     	ds	2
   165  002F                     _count_button_press:	
   166  002F                     	ds	2
   167  0031                     _primeira_vez_loop:	
   168  0031                     	ds	1
   169  0032                     _timer_out:	
   170  0032                     	ds	1
   171  0033                     _modo_atual:	
   172  0033                     	ds	1
   173                           
   174                           	psect	cstackCOMMON
   175  0000                     __pcstackCOMMON:	
   176  0000                     ??_config_osc:	
   177  0000                     ??_config_var:	
   178                           ; 1 bytes @ 0x0
   179                           
   180  0000                     ??_config_Timer1:	
   181                           ; 1 bytes @ 0x0
   182                           
   183  0000                     ??_config_mcu:	
   184                           ; 1 bytes @ 0x0
   185                           
   186  0000                     ??_modo_lowpower:	
   187                           ; 1 bytes @ 0x0
   188                           
   189  0000                     ??_main:	
   190                           ; 1 bytes @ 0x0
   191                           
   192                           
   193                           	psect	cstackBANK0
   194  0020                     __pcstackBANK0:	
   195                           ; 1 bytes @ 0x0
   196                           
   197  0020                     ?_config_osc:	
   198  0020                     ?_config_var:	
   199                           ; 1 bytes @ 0x0
   200                           
   201  0020                     ?_config_Timer1:	
   202                           ; 1 bytes @ 0x0
   203                           
   204  0020                     ?_config_mcu:	
   205                           ; 1 bytes @ 0x0
   206                           
   207  0020                     ?_mode_on:	
   208                           ; 1 bytes @ 0x0
   209                           
   210  0020                     ?_modo_lowpower:	
   211                           ; 1 bytes @ 0x0
   212                           
   213  0020                     ?_read_mode:	
   214                           ; 1 bytes @ 0x0
   215                           
   216  0020                     ??_read_mode:	
   217                           ; 1 bytes @ 0x0
   218                           
   219  0020                     ?_isr:	
   220                           ; 1 bytes @ 0x0
   221                           
   222  0020                     ?_main:	
   223                           ; 1 bytes @ 0x0
   224                           
   225                           
   226                           ; 2 bytes @ 0x0
   227  0020                     	ds	3
   228  0023                     ??_isr:	
   229                           
   230                           ; 1 bytes @ 0x3
   231  0023                     	ds	3
   232  0026                     ??_mode_on:	
   233                           
   234                           ; 1 bytes @ 0x6
   235  0026                     	ds	3
   236  0029                     mode_on@timer_count_min:	
   237                           
   238                           ; 2 bytes @ 0x9
   239  0029                     	ds	2
   240  002B                     mode_on@timer_count_seg:	
   241                           
   242                           ; 2 bytes @ 0xB
   243  002B                     	ds	2
   244                           
   245                           	psect	maintext
   246  01A4                     __pmaintext:	
   247 ;;
   248 ;;Main: autosize = 0, tempsize = 0, incstack = 0, save=0
   249 ;;
   250 ;; *************** function _main *****************
   251 ;; Defined at:
   252 ;;		line 102 in file "main.c"
   253 ;; Parameters:    Size  Location     Type
   254 ;;		None
   255 ;; Auto vars:     Size  Location     Type
   256 ;;		None
   257 ;; Return value:  Size  Location     Type
   258 ;;                  2   70[None  ] int 
   259 ;; Registers used:
   260 ;;		wreg, status,2, status,0, pclath, cstack
   261 ;; Tracked objects:
   262 ;;		On entry : B00/0
   263 ;;		On exit  : 0/0
   264 ;;		Unchanged: 0/0
   265 ;; Data sizes:     COMMON   BANK0
   266 ;;      Params:         0       0
   267 ;;      Locals:         0       0
   268 ;;      Temps:          0       0
   269 ;;      Totals:         0       0
   270 ;;Total ram usage:        0 bytes
   271 ;; Hardware stack levels required when called:    4
   272 ;; This function calls:
   273 ;;		_config_Timer1
   274 ;;		_config_mcu
   275 ;;		_config_osc
   276 ;;		_config_var
   277 ;;		_mode_on
   278 ;; This function is called by:
   279 ;;		Startup code after reset
   280 ;; This function uses a non-reentrant model
   281 ;;
   282                           
   283                           
   284                           ;psect for function _main
   285  01A4                     _main:	
   286  01A4                     l1122:	
   287                           ;incstack = 0
   288                           ; Regs used in _main: [wreg+status,2+status,0+pclath+cstack]
   289                           
   290                           
   291                           ;main.c: 104:     config_osc();
   292  01A4  21B2               	fcall	_config_osc
   293                           
   294                           ;main.c: 105:     config_var();
   295  01A5  21AB               	fcall	_config_var
   296  01A6                     l1124:	
   297                           
   298                           ;main.c: 106:     config_Timer1();
   299  01A6  2199               	fcall	_config_Timer1
   300  01A7                     l1126:	
   301                           
   302                           ;main.c: 107:     config_mcu();
   303  01A7  2185               	fcall	_config_mcu
   304  01A8                     l1128:	
   305                           
   306                           ;main.c: 110:     {;main.c: 111:         mode_on();
   307  01A8  2018               	fcall	_mode_on
   308  01A9  29A8               	goto	l1128
   309  01AA  280D               	ljmp	start
   310  01AB                     __end_of_main:	
   311                           
   312                           	psect	text1
   313  0018                     __ptext1:	
   314 ;; *************** function _mode_on *****************
   315 ;; Defined at:
   316 ;;		line 186 in file "main.c"
   317 ;; Parameters:    Size  Location     Type
   318 ;;		None
   319 ;; Auto vars:     Size  Location     Type
   320 ;;  timer_count_    2   11[BANK0 ] unsigned int 
   321 ;;  timer_count_    2    9[BANK0 ] unsigned int 
   322 ;; Return value:  Size  Location     Type
   323 ;;                  1    wreg      void 
   324 ;; Registers used:
   325 ;;		wreg, status,2, status,0, pclath, cstack
   326 ;; Tracked objects:
   327 ;;		On entry : 0/0
   328 ;;		On exit  : 0/0
   329 ;;		Unchanged: 0/0
   330 ;; Data sizes:     COMMON   BANK0
   331 ;;      Params:         0       0
   332 ;;      Locals:         0       4
   333 ;;      Temps:          0       3
   334 ;;      Totals:         0       7
   335 ;;Total ram usage:        7 bytes
   336 ;; Hardware stack levels used:    1
   337 ;; Hardware stack levels required when called:    3
   338 ;; This function calls:
   339 ;;		_modo_lowpower
   340 ;; This function is called by:
   341 ;;		_main
   342 ;; This function uses a non-reentrant model
   343 ;;
   344                           
   345                           
   346                           ;psect for function _mode_on
   347  0018                     _mode_on:	
   348  0018                     l992:	
   349                           ;incstack = 0
   350                           ; Regs used in _mode_on: [wreg+status,2+status,0+pclath+cstack]
   351                           
   352                           
   353                           ;main.c: 189:     unsigned int timer_count_seg;;main.c: 190:     unsigned int timer_coun
      +                          t_min;;main.c: 193:     if(modo_atual == modo_timer)
   354  0018  1283               	bcf	3,5	;RP0=0, select bank0
   355  0019  0333               	decf	_modo_atual,w
   356  001A  1D03               	btfss	3,2
   357  001B  281D               	goto	u281
   358  001C  281E               	goto	u280
   359  001D                     u281:	
   360  001D  2879               	goto	l1028
   361  001E                     u280:	
   362  001E                     l994:	
   363                           
   364                           ;main.c: 194:     {;main.c: 195:         timer_count_seg = 114;
   365  001E  3072               	movlw	114
   366  001F  00AB               	movwf	mode_on@timer_count_seg
   367  0020  3000               	movlw	0
   368  0021  00AC               	movwf	mode_on@timer_count_seg+1
   369                           
   370                           ;main.c: 196:         timer_count_min = 40;
   371  0022  3028               	movlw	40
   372  0023  00A9               	movwf	mode_on@timer_count_min
   373  0024  3000               	movlw	0
   374  0025  00AA               	movwf	mode_on@timer_count_min+1
   375  0026                     l996:	
   376                           
   377                           ;main.c: 198:         TMR1ON = 1;
   378  0026  1410               	bsf	16,0	;volatile
   379                           
   380                           ;main.c: 201:         while(timer_count_min != 0 && modo_atual == modo_timer)
   381  0027  2864               	goto	l1020
   382  0028                     l91:	
   383                           
   384                           ;main.c: 202:         {;main.c: 204:             GP2 = 1;
   385  0028  1505               	bsf	5,2	;volatile
   386                           
   387                           ;main.c: 205:             TMR1ON = 1;
   388  0029  1410               	bsf	16,0	;volatile
   389  002A                     l998:	
   390                           
   391                           ;main.c: 206:             if(timer_out == 1)
   392  002A  0332               	decf	_timer_out,w
   393  002B  1D03               	btfss	3,2
   394  002C  282E               	goto	u291
   395  002D  282F               	goto	u290
   396  002E                     u291:	
   397  002E  2847               	goto	l1010
   398  002F                     u290:	
   399  002F                     l1000:	
   400                           
   401                           ;main.c: 207:             {;main.c: 209:                 timer_count_seg--;
   402  002F  3001               	movlw	1
   403  0030  02AB               	subwf	mode_on@timer_count_seg,f
   404  0031  3000               	movlw	0
   405  0032  1C03               	skipc
   406  0033  03AC               	decf	mode_on@timer_count_seg+1,f
   407  0034  02AC               	subwf	mode_on@timer_count_seg+1,f
   408  0035                     l1002:	
   409                           
   410                           ;main.c: 210:                 timer_out = 0;
   411  0035  01B2               	clrf	_timer_out
   412  0036                     l1004:	
   413                           
   414                           ;main.c: 211:                 TMR1ON = 1;
   415  0036  1410               	bsf	16,0	;volatile
   416  0037                     l1006:	
   417                           
   418                           ;main.c: 213:                 if(timer_count_seg == 0)
   419  0037  082B               	movf	mode_on@timer_count_seg,w
   420  0038  042C               	iorwf	mode_on@timer_count_seg+1,w
   421  0039  1D03               	btfss	3,2
   422  003A  283C               	goto	u301
   423  003B  283D               	goto	u300
   424  003C                     u301:	
   425  003C  2847               	goto	l1010
   426  003D                     u300:	
   427  003D                     l1008:	
   428                           
   429                           ;main.c: 214:                 {;main.c: 215:                     timer_count_seg = 114;
   430  003D  3072               	movlw	114
   431  003E  00AB               	movwf	mode_on@timer_count_seg
   432  003F  3000               	movlw	0
   433  0040  00AC               	movwf	mode_on@timer_count_seg+1
   434                           
   435                           ;main.c: 216:                     timer_count_min--;
   436  0041  3001               	movlw	1
   437  0042  02A9               	subwf	mode_on@timer_count_min,f
   438  0043  3000               	movlw	0
   439  0044  1C03               	skipc
   440  0045  03AA               	decf	mode_on@timer_count_min+1,f
   441  0046  02AA               	subwf	mode_on@timer_count_min+1,f
   442  0047                     l1010:	
   443                           
   444                           ;main.c: 220:             if(timer_count_min == 1 && timer_count_seg == 114)
   445  0047  0329               	decf	mode_on@timer_count_min,w
   446  0048  042A               	iorwf	mode_on@timer_count_min+1,w
   447  0049  1D03               	btfss	3,2
   448  004A  284C               	goto	u311
   449  004B  284D               	goto	u310
   450  004C                     u311:	
   451  004C  2864               	goto	l1020
   452  004D                     u310:	
   453  004D                     l1012:	
   454  004D  3072               	movlw	114
   455  004E  062B               	xorwf	mode_on@timer_count_seg,w
   456  004F  042C               	iorwf	mode_on@timer_count_seg+1,w
   457  0050  1D03               	btfss	3,2
   458  0051  2853               	goto	u321
   459  0052  2854               	goto	u320
   460  0053                     u321:	
   461  0053  2864               	goto	l1020
   462  0054                     u320:	
   463  0054                     l1014:	
   464                           
   465                           ;main.c: 221:             {;main.c: 222:                 GP2 = 0;
   466  0054  1105               	bcf	5,2	;volatile
   467  0055                     l1016:	
   468                           
   469                           ;main.c: 223:                 _delay((unsigned long)((500)*(4000000/4000.0)));
   470  0055  3003               	movlw	3
   471  0056  00A8               	movwf	??_mode_on+2
   472  0057  308A               	movlw	138
   473  0058  00A7               	movwf	??_mode_on+1
   474  0059  3055               	movlw	85
   475  005A  00A6               	movwf	??_mode_on
   476  005B                     u557:	
   477  005B  0BA6               	decfsz	??_mode_on,f
   478  005C  285B               	goto	u557
   479  005D  0BA7               	decfsz	??_mode_on+1,f
   480  005E  285B               	goto	u557
   481  005F  0BA8               	decfsz	??_mode_on+2,f
   482  0060  285B               	goto	u557
   483  0061  2862               	nop2
   484  0062                     l1018:	
   485                           
   486                           ;main.c: 224:                 GP2 = 1;
   487  0062  1283               	bcf	3,5	;RP0=0, select bank0
   488  0063  1505               	bsf	5,2	;volatile
   489  0064                     l1020:	
   490                           
   491                           ;main.c: 201:         while(timer_count_min != 0 && modo_atual == modo_timer)
   492  0064  0829               	movf	mode_on@timer_count_min,w
   493  0065  042A               	iorwf	mode_on@timer_count_min+1,w
   494  0066  1903               	btfsc	3,2
   495  0067  2869               	goto	u331
   496  0068  286A               	goto	u330
   497  0069                     u331:	
   498  0069  286F               	goto	l1024
   499  006A                     u330:	
   500  006A                     l1022:	
   501  006A  0333               	decf	_modo_atual,w
   502  006B  1903               	btfsc	3,2
   503  006C  286E               	goto	u341
   504  006D  286F               	goto	u340
   505  006E                     u341:	
   506  006E  2828               	goto	l91
   507  006F                     u340:	
   508  006F                     l1024:	
   509                           
   510                           ;main.c: 228:         if(modo_atual != modo_sempre_ligado)
   511  006F  3002               	movlw	2
   512  0070  0633               	xorwf	_modo_atual,w
   513  0071  1903               	btfsc	3,2
   514  0072  2874               	goto	u351
   515  0073  2875               	goto	u350
   516  0074                     u351:	
   517  0074  2879               	goto	l1028
   518  0075                     u350:	
   519  0075                     l1026:	
   520                           
   521                           ;main.c: 229:         {;main.c: 230:             modo_atual = modo_apagado;
   522  0075  3003               	movlw	3
   523  0076  00A6               	movwf	??_mode_on
   524  0077  0826               	movf	??_mode_on,w
   525  0078  00B3               	movwf	_modo_atual
   526  0079                     l1028:	
   527                           
   528                           ;main.c: 233:     if(modo_atual == modo_sempre_ligado)
   529  0079  3002               	movlw	2
   530  007A  0633               	xorwf	_modo_atual,w
   531  007B  1D03               	btfss	3,2
   532  007C  287E               	goto	u361
   533  007D  287F               	goto	u360
   534  007E                     u361:	
   535  007E  2897               	goto	l1044
   536  007F                     u360:	
   537  007F                     l1030:	
   538                           
   539                           ;main.c: 234:     {;main.c: 235:         TMR1ON = 0;
   540  007F  1010               	bcf	16,0	;volatile
   541  0080                     l1032:	
   542                           
   543                           ;main.c: 236:         timer_out = 0;
   544  0080  01B2               	clrf	_timer_out
   545  0081                     l1034:	
   546                           
   547                           ;main.c: 237:         if (primeira_vez_loop == 1)
   548  0081  0331               	decf	_primeira_vez_loop,w
   549  0082  1D03               	btfss	3,2
   550  0083  2885               	goto	u371
   551  0084  2886               	goto	u370
   552  0085                     u371:	
   553  0085  2896               	goto	l1042
   554  0086                     u370:	
   555  0086                     l1036:	
   556                           
   557                           ;main.c: 238:         {;main.c: 239:             GP2 = 0;
   558  0086  1105               	bcf	5,2	;volatile
   559  0087                     l1038:	
   560                           
   561                           ;main.c: 240:             _delay((unsigned long)((1000)*(4000000/4000.0)));
   562  0087  3006               	movlw	6
   563  0088  00A8               	movwf	??_mode_on+2
   564  0089  3013               	movlw	19
   565  008A  00A7               	movwf	??_mode_on+1
   566  008B  30AD               	movlw	173
   567  008C  00A6               	movwf	??_mode_on
   568  008D                     u567:	
   569  008D  0BA6               	decfsz	??_mode_on,f
   570  008E  288D               	goto	u567
   571  008F  0BA7               	decfsz	??_mode_on+1,f
   572  0090  288D               	goto	u567
   573  0091  0BA8               	decfsz	??_mode_on+2,f
   574  0092  288D               	goto	u567
   575  0093  2894               	nop2
   576  0094                     l1040:	
   577                           
   578                           ;main.c: 241:             primeira_vez_loop = 0;
   579  0094  1283               	bcf	3,5	;RP0=0, select bank0
   580  0095  01B1               	clrf	_primeira_vez_loop
   581  0096                     l1042:	
   582                           
   583                           ;main.c: 243:             GP2 = 1;
   584  0096  1505               	bsf	5,2	;volatile
   585  0097                     l1044:	
   586                           
   587                           ;main.c: 247:     if( modo_atual == modo_apagado)
   588  0097  3003               	movlw	3
   589  0098  0633               	xorwf	_modo_atual,w
   590  0099  1D03               	btfss	3,2
   591  009A  289C               	goto	u381
   592  009B  289D               	goto	u380
   593  009C                     u381:	
   594  009C  28B3               	goto	l1058
   595  009D                     u380:	
   596  009D                     l1046:	
   597                           
   598                           ;main.c: 248:     {;main.c: 249:         timer_out = 0;
   599  009D  01B2               	clrf	_timer_out
   600  009E                     l1048:	
   601                           
   602                           ;main.c: 250:         TMR1ON = 0;
   603  009E  1010               	bcf	16,0	;volatile
   604  009F                     l1050:	
   605                           
   606                           ;main.c: 251:         GP2= 0;
   607  009F  1105               	bcf	5,2	;volatile
   608  00A0                     l102:	
   609                           ;main.c: 252:         while(GP0 == 0);
   610                           
   611  00A0  1C05               	btfss	5,0	;volatile
   612  00A1  28A3               	goto	u391
   613  00A2  28A4               	goto	u390
   614  00A3                     u391:	
   615  00A3  28A0               	goto	l102
   616  00A4                     u390:	
   617  00A4                     l1052:	
   618                           
   619                           ;main.c: 253:         _delay((unsigned long)((100)*(4000000/4000.0)));
   620  00A4  3082               	movlw	130
   621  00A5  00A7               	movwf	??_mode_on+1
   622  00A6  30DD               	movlw	221
   623  00A7  00A6               	movwf	??_mode_on
   624  00A8                     u577:	
   625  00A8  0BA6               	decfsz	??_mode_on,f
   626  00A9  28A8               	goto	u577
   627  00AA  0BA7               	decfsz	??_mode_on+1,f
   628  00AB  28A8               	goto	u577
   629  00AC  28AD               	nop2
   630  00AD                     l1054:	
   631                           
   632                           ;main.c: 254:         if(GP0 == 1)
   633  00AD  1283               	bcf	3,5	;RP0=0, select bank0
   634  00AE  1C05               	btfss	5,0	;volatile
   635  00AF  28B1               	goto	u401
   636  00B0  28B2               	goto	u400
   637  00B1                     u401:	
   638  00B1  28B3               	goto	l1058
   639  00B2                     u400:	
   640  00B2                     l1056:	
   641                           
   642                           ;main.c: 258:             modo_atual=modo_desligado;
   643  00B2  01B3               	clrf	_modo_atual
   644  00B3                     l1058:	
   645                           
   646                           ;main.c: 263:     if(modo_atual == modo_desligado)
   647  00B3  0833               	movf	_modo_atual,w
   648  00B4  1D03               	btfss	3,2
   649  00B5  28B7               	goto	u411
   650  00B6  28B8               	goto	u410
   651  00B7                     u411:	
   652  00B7  28C6               	goto	l107
   653  00B8                     u410:	
   654  00B8                     l1060:	
   655                           
   656                           ;main.c: 264:     {;main.c: 265:       _delay((unsigned long)((3000)*(4000000/4000.0)));
   657  00B8  3010               	movlw	16
   658  00B9  00A8               	movwf	??_mode_on+2
   659  00BA  3039               	movlw	57
   660  00BB  00A7               	movwf	??_mode_on+1
   661  00BC  300D               	movlw	13
   662  00BD  00A6               	movwf	??_mode_on
   663  00BE                     u587:	
   664  00BE  0BA6               	decfsz	??_mode_on,f
   665  00BF  28BE               	goto	u587
   666  00C0  0BA7               	decfsz	??_mode_on+1,f
   667  00C1  28BE               	goto	u587
   668  00C2  0BA8               	decfsz	??_mode_on+2,f
   669  00C3  28BE               	goto	u587
   670  00C4  28C5               	nop2
   671  00C5                     l1062:	
   672                           
   673                           ;main.c: 266:       modo_lowpower();
   674  00C5  21B7               	fcall	_modo_lowpower
   675  00C6                     l107:	
   676  00C6  0008               	return
   677  00C7                     __end_of_mode_on:	
   678                           
   679                           	psect	text2
   680  01B7                     __ptext2:	
   681 ;; *************** function _modo_lowpower *****************
   682 ;; Defined at:
   683 ;;		line 338 in file "main.c"
   684 ;; Parameters:    Size  Location     Type
   685 ;;		None
   686 ;; Auto vars:     Size  Location     Type
   687 ;;		None
   688 ;; Return value:  Size  Location     Type
   689 ;;                  1    wreg      void 
   690 ;; Registers used:
   691 ;;		None
   692 ;; Tracked objects:
   693 ;;		On entry : 0/0
   694 ;;		On exit  : 0/0
   695 ;;		Unchanged: 0/0
   696 ;; Data sizes:     COMMON   BANK0
   697 ;;      Params:         0       0
   698 ;;      Locals:         0       0
   699 ;;      Temps:          0       0
   700 ;;      Totals:         0       0
   701 ;;Total ram usage:        0 bytes
   702 ;; Hardware stack levels used:    1
   703 ;; Hardware stack levels required when called:    2
   704 ;; This function calls:
   705 ;;		Nothing
   706 ;; This function is called by:
   707 ;;		_mode_on
   708 ;; This function uses a non-reentrant model
   709 ;;
   710                           
   711                           
   712                           ;psect for function _modo_lowpower
   713  01B7                     _modo_lowpower:	
   714  01B7                     l952:	
   715                           ;incstack = 0
   716                           ; Regs used in _modo_lowpower: []
   717                           
   718  01B7  0063               	sleep	;# 
   719                           
   720                           ;main.c: 341:     __nop();
   721  01B8  0000               	nop
   722                           
   723                           ;main.c: 342:     __nop();
   724  01B9  0000               	nop
   725  01BA                     l132:	
   726  01BA  0008               	return
   727  01BB                     __end_of_modo_lowpower:	
   728                           
   729                           	psect	text3
   730  01AB                     __ptext3:	
   731 ;; *************** function _config_var *****************
   732 ;; Defined at:
   733 ;;		line 155 in file "main.c"
   734 ;; Parameters:    Size  Location     Type
   735 ;;		None
   736 ;; Auto vars:     Size  Location     Type
   737 ;;		None
   738 ;; Return value:  Size  Location     Type
   739 ;;                  1    wreg      void 
   740 ;; Registers used:
   741 ;;		status,2
   742 ;; Tracked objects:
   743 ;;		On entry : 0/0
   744 ;;		On exit  : 0/0
   745 ;;		Unchanged: 0/0
   746 ;; Data sizes:     COMMON   BANK0
   747 ;;      Params:         0       0
   748 ;;      Locals:         0       0
   749 ;;      Temps:          0       0
   750 ;;      Totals:         0       0
   751 ;;Total ram usage:        0 bytes
   752 ;; Hardware stack levels used:    1
   753 ;; Hardware stack levels required when called:    2
   754 ;; This function calls:
   755 ;;		Nothing
   756 ;; This function is called by:
   757 ;;		_main
   758 ;; This function uses a non-reentrant model
   759 ;;
   760                           
   761                           
   762                           ;psect for function _config_var
   763  01AB                     _config_var:	
   764  01AB                     l956:	
   765                           ;incstack = 0
   766                           ; Regs used in _config_var: [status,2]
   767                           
   768                           
   769                           ;main.c: 157:    count_button_press = 0;
   770  01AB  1283               	bcf	3,5	;RP0=0, select bank0
   771  01AC  01AF               	clrf	_count_button_press
   772  01AD  01B0               	clrf	_count_button_press+1
   773                           
   774                           ;main.c: 158:    modo_atual = modo_desligado;
   775  01AE  01B3               	clrf	_modo_atual
   776                           
   777                           ;main.c: 159:    timer_out = 0;
   778  01AF  01B2               	clrf	_timer_out
   779                           
   780                           ;main.c: 160:    primeira_vez_loop = 0;
   781  01B0  01B1               	clrf	_primeira_vez_loop
   782  01B1                     l83:	
   783  01B1  0008               	return
   784  01B2                     __end_of_config_var:	
   785                           
   786                           	psect	text4
   787  01B2                     __ptext4:	
   788 ;; *************** function _config_osc *****************
   789 ;; Defined at:
   790 ;;		line 122 in file "main.c"
   791 ;; Parameters:    Size  Location     Type
   792 ;;		None
   793 ;; Auto vars:     Size  Location     Type
   794 ;;		None
   795 ;; Return value:  Size  Location     Type
   796 ;;                  1    wreg      void 
   797 ;; Registers used:
   798 ;;		None
   799 ;; Tracked objects:
   800 ;;		On entry : 0/0
   801 ;;		On exit  : 0/0
   802 ;;		Unchanged: 0/0
   803 ;; Data sizes:     COMMON   BANK0
   804 ;;      Params:         0       0
   805 ;;      Locals:         0       0
   806 ;;      Temps:          0       0
   807 ;;      Totals:         0       0
   808 ;;Total ram usage:        0 bytes
   809 ;; Hardware stack levels used:    1
   810 ;; Hardware stack levels required when called:    2
   811 ;; This function calls:
   812 ;;		Nothing
   813 ;; This function is called by:
   814 ;;		_main
   815 ;; This function uses a non-reentrant model
   816 ;;
   817                           
   818                           
   819                           ;psect for function _config_osc
   820  01B2                     _config_osc:	
   821  01B2                     l954:	
   822                           ;incstack = 0
   823                           ; Regs used in _config_osc: []
   824                           
   825  01B2  1683               	bsf	3,5	;# 
   826  01B3  23FF               	call	1023	;# 
   827  01B4  0090               	movwf	144	;# 
   828  01B5  1283               	bcf	3,5	;# 
   829  01B6                     l77:	
   830  01B6  0008               	return
   831  01B7                     __end_of_config_osc:	
   832                           
   833                           	psect	text5
   834  0185                     __ptext5:	
   835 ;; *************** function _config_mcu *****************
   836 ;; Defined at:
   837 ;;		line 134 in file "main.c"
   838 ;; Parameters:    Size  Location     Type
   839 ;;		None
   840 ;; Auto vars:     Size  Location     Type
   841 ;;		None
   842 ;; Return value:  Size  Location     Type
   843 ;;                  1    wreg      void 
   844 ;; Registers used:
   845 ;;		wreg, status,2
   846 ;; Tracked objects:
   847 ;;		On entry : 0/0
   848 ;;		On exit  : 0/0
   849 ;;		Unchanged: 0/0
   850 ;; Data sizes:     COMMON   BANK0
   851 ;;      Params:         0       0
   852 ;;      Locals:         0       0
   853 ;;      Temps:          0       0
   854 ;;      Totals:         0       0
   855 ;;Total ram usage:        0 bytes
   856 ;; Hardware stack levels used:    1
   857 ;; Hardware stack levels required when called:    2
   858 ;; This function calls:
   859 ;;		Nothing
   860 ;; This function is called by:
   861 ;;		_main
   862 ;; This function uses a non-reentrant model
   863 ;;
   864                           
   865                           
   866                           ;psect for function _config_mcu
   867  0185                     _config_mcu:	
   868  0185                     l970:	
   869                           ;incstack = 0
   870                           ; Regs used in _config_mcu: [wreg+status,2]
   871                           
   872                           
   873                           ;main.c: 136:     ANSEL = 0b00000000;
   874  0185  1683               	bsf	3,5	;RP0=1, select bank1
   875  0186  019F               	clrf	31	;volatile
   876  0187                     l972:	
   877                           
   878                           ;main.c: 137:     CMCON = 0b00000111;
   879  0187  3007               	movlw	7
   880  0188  1283               	bcf	3,5	;RP0=0, select bank0
   881  0189  0099               	movwf	25	;volatile
   882  018A                     l974:	
   883                           
   884                           ;main.c: 138:     TRISIO = 0b11001001;
   885  018A  30C9               	movlw	201
   886  018B  1683               	bsf	3,5	;RP0=1, select bank1
   887  018C  0085               	movwf	5	;volatile
   888                           
   889                           ;main.c: 139:     WPU = 0b00000000;
   890  018D  0195               	clrf	21	;volatile
   891  018E                     l976:	
   892                           
   893                           ;main.c: 140:     GP1 = 0;
   894  018E  1283               	bcf	3,5	;RP0=0, select bank0
   895  018F  1085               	bcf	5,1	;volatile
   896  0190                     l978:	
   897                           
   898                           ;main.c: 141:     GP2 = 0;
   899  0190  1105               	bcf	5,2	;volatile
   900  0191                     l980:	
   901                           
   902                           ;main.c: 142:     GP4 = 0;
   903  0191  1205               	bcf	5,4	;volatile
   904  0192                     l982:	
   905                           
   906                           ;main.c: 143:     GP5 = 0;
   907  0192  1285               	bcf	5,5	;volatile
   908  0193                     l984:	
   909                           
   910                           ;main.c: 144:     GIE = 1;
   911  0193  178B               	bsf	11,7	;volatile
   912  0194                     l986:	
   913                           
   914                           ;main.c: 145:     GPIE = 1;
   915  0194  158B               	bsf	11,3	;volatile
   916  0195                     l988:	
   917                           
   918                           ;main.c: 146:     IOC0 = 1;
   919  0195  1683               	bsf	3,5	;RP0=1, select bank1
   920  0196  1416               	bsf	22,0	;volatile
   921  0197                     l990:	
   922                           
   923                           ;main.c: 147:     PEIE = 1;
   924  0197  170B               	bsf	11,6	;volatile
   925  0198                     l80:	
   926  0198  0008               	return
   927  0199                     __end_of_config_mcu:	
   928                           
   929                           	psect	text6
   930  0199                     __ptext6:	
   931 ;; *************** function _config_Timer1 *****************
   932 ;; Defined at:
   933 ;;		line 171 in file "main.c"
   934 ;; Parameters:    Size  Location     Type
   935 ;;		None
   936 ;; Auto vars:     Size  Location     Type
   937 ;;		None
   938 ;; Return value:  Size  Location     Type
   939 ;;                  1    wreg      void 
   940 ;; Registers used:
   941 ;;		wreg, status,2
   942 ;; Tracked objects:
   943 ;;		On entry : 0/0
   944 ;;		On exit  : 0/0
   945 ;;		Unchanged: 0/0
   946 ;; Data sizes:     COMMON   BANK0
   947 ;;      Params:         0       0
   948 ;;      Locals:         0       0
   949 ;;      Temps:          0       0
   950 ;;      Totals:         0       0
   951 ;;Total ram usage:        0 bytes
   952 ;; Hardware stack levels used:    1
   953 ;; Hardware stack levels required when called:    2
   954 ;; This function calls:
   955 ;;		Nothing
   956 ;; This function is called by:
   957 ;;		_main
   958 ;; This function uses a non-reentrant model
   959 ;;
   960                           
   961                           
   962                           ;psect for function _config_Timer1
   963  0199                     _config_Timer1:	
   964  0199                     l958:	
   965                           ;incstack = 0
   966                           ; Regs used in _config_Timer1: [wreg+status,2]
   967                           
   968                           
   969                           ;main.c: 173:     T1CON = 0b00110000;
   970  0199  3030               	movlw	48
   971  019A  1283               	bcf	3,5	;RP0=0, select bank0
   972  019B  0090               	movwf	16	;volatile
   973  019C                     l960:	
   974                           
   975                           ;main.c: 174:     TMR1IF = 0;
   976  019C  100C               	bcf	12,0	;volatile
   977  019D                     l962:	
   978                           
   979                           ;main.c: 175:     TMR1L = 0x00;
   980  019D  018E               	clrf	14	;volatile
   981  019E                     l964:	
   982                           
   983                           ;main.c: 176:     TMR1H = 0x00;
   984  019E  018F               	clrf	15	;volatile
   985  019F                     l966:	
   986                           
   987                           ;main.c: 177:     TMR1IE = 1;
   988  019F  1683               	bsf	3,5	;RP0=1, select bank1
   989  01A0  140C               	bsf	12,0	;volatile
   990  01A1                     l968:	
   991                           
   992                           ;main.c: 178:     TMR1ON = 0;
   993  01A1  1283               	bcf	3,5	;RP0=0, select bank0
   994  01A2  1010               	bcf	16,0	;volatile
   995  01A3                     l86:	
   996  01A3  0008               	return
   997  01A4                     __end_of_config_Timer1:	
   998                           
   999                           	psect	text7
  1000  015B                     __ptext7:	
  1001 ;; *************** function _isr *****************
  1002 ;; Defined at:
  1003 ;;		line 349 in file "main.c"
  1004 ;; Parameters:    Size  Location     Type
  1005 ;;		None
  1006 ;; Auto vars:     Size  Location     Type
  1007 ;;		None
  1008 ;; Return value:  Size  Location     Type
  1009 ;;                  1    wreg      void 
  1010 ;; Registers used:
  1011 ;;		wreg, fsr0l, fsr0h, status,2, status,0, pclath, cstack
  1012 ;; Tracked objects:
  1013 ;;		On entry : 0/0
  1014 ;;		On exit  : 0/0
  1015 ;;		Unchanged: 0/0
  1016 ;; Data sizes:     COMMON   BANK0
  1017 ;;      Params:         0       0
  1018 ;;      Locals:         0       0
  1019 ;;      Temps:          0       3
  1020 ;;      Totals:         0       3
  1021 ;;Total ram usage:        3 bytes
  1022 ;; Hardware stack levels used:    1
  1023 ;; Hardware stack levels required when called:    1
  1024 ;; This function calls:
  1025 ;;		_read_mode
  1026 ;; This function is called by:
  1027 ;;		Interrupt level 1
  1028 ;; This function uses a non-reentrant model
  1029 ;;
  1030                           
  1031                           
  1032                           ;psect for function _isr
  1033  015B                     _isr:	
  1034  015B                     i1l1130:	
  1035                           
  1036                           ;main.c: 355:     if (GPIE == 1 && GPIF == 1)
  1037  015B  1D8B               	btfss	11,3	;volatile
  1038  015C  295E               	goto	u50_21
  1039  015D  295F               	goto	u50_20
  1040  015E                     u50_21:	
  1041  015E  296B               	goto	i1l1142
  1042  015F                     u50_20:	
  1043  015F                     i1l1132:	
  1044  015F  1C0B               	btfss	11,0	;volatile
  1045  0160  2962               	goto	u51_21
  1046  0161  2963               	goto	u51_20
  1047  0162                     u51_21:	
  1048  0162  296B               	goto	i1l1142
  1049  0163                     u51_20:	
  1050  0163                     i1l1134:	
  1051                           
  1052                           ;main.c: 357:     {;main.c: 358:         GPIE = 0;
  1053  0163  118B               	bcf	11,3	;volatile
  1054                           
  1055                           ;main.c: 360:         if (GP0 == 0)
  1056  0164  1805               	btfsc	5,0	;volatile
  1057  0165  2967               	goto	u52_21
  1058  0166  2968               	goto	u52_20
  1059  0167                     u52_21:	
  1060  0167  2969               	goto	i1l1138
  1061  0168                     u52_20:	
  1062  0168                     i1l1136:	
  1063                           
  1064                           ;main.c: 361:         {;main.c: 362:               read_mode();
  1065  0168  20C7               	fcall	_read_mode
  1066  0169                     i1l1138:	
  1067                           
  1068                           ;main.c: 364:               GPIE = 1;
  1069  0169  158B               	bsf	11,3	;volatile
  1070  016A                     i1l1140:	
  1071                           
  1072                           ;main.c: 365:               GPIF = 0;
  1073  016A  100B               	bcf	11,0	;volatile
  1074  016B                     i1l1142:	
  1075                           
  1076                           ;main.c: 372:     if(TMR1IE == 1 && TMR1IF== 1)
  1077  016B  1683               	bsf	3,5	;RP0=1, select bank1
  1078  016C  1C0C               	btfss	12,0	;volatile
  1079  016D  296F               	goto	u53_21
  1080  016E  2970               	goto	u53_20
  1081  016F                     u53_21:	
  1082  016F  297B               	goto	i1l140
  1083  0170                     u53_20:	
  1084  0170                     i1l1144:	
  1085  0170  1283               	bcf	3,5	;RP0=0, select bank0
  1086  0171  1C0C               	btfss	12,0	;volatile
  1087  0172  2974               	goto	u54_21
  1088  0173  2975               	goto	u54_20
  1089  0174                     u54_21:	
  1090  0174  297B               	goto	i1l140
  1091  0175                     u54_20:	
  1092  0175                     i1l1146:	
  1093                           
  1094                           ;main.c: 373:     {;main.c: 374:         timer_out = 1;
  1095  0175  01B2               	clrf	_timer_out
  1096  0176  0AB2               	incf	_timer_out,f
  1097                           
  1098                           ;main.c: 375:         TMR1ON = 0;
  1099  0177  1010               	bcf	16,0	;volatile
  1100  0178                     i1l1148:	
  1101                           
  1102                           ;main.c: 376:         TMR1L = 0x00;
  1103  0178  018E               	clrf	14	;volatile
  1104                           
  1105                           ;main.c: 377:         TMR1H = 0x00;
  1106  0179  018F               	clrf	15	;volatile
  1107  017A                     i1l1150:	
  1108                           
  1109                           ;main.c: 378:         TMR1IF = 0;
  1110  017A  100C               	bcf	12,0	;volatile
  1111  017B                     i1l140:	
  1112  017B  1283               	bcf	3,5	;RP0=0, select bank0
  1113  017C  0825               	movf	??_isr+2,w
  1114  017D  008A               	movwf	10
  1115  017E  0824               	movf	??_isr+1,w
  1116  017F  0084               	movwf	4
  1117  0180  0E23               	swapf	??_isr^0,w
  1118  0181  0083               	movwf	3
  1119  0182  0EDE               	swapf	btemp,f
  1120  0183  0E5E               	swapf	btemp,w
  1121  0184  0009               	retfie
  1122  0185                     __end_of_isr:	
  1123                           
  1124                           	psect	intentry
  1125  0004                     __pintentry:	
  1126                           ;incstack = 0
  1127                           ; Regs used in _isr: [wreg-fsr0h+status,2+status,0+pclath+cstack]
  1128                           
  1129  0004                     interrupt_function:	
  1130  005E                     saved_w	set	btemp
  1131  0004  00DE               	movwf	btemp
  1132  0005  0E03               	swapf	3,w
  1133  0006  1283               	bcf	3,5	;RP0=0, select bank0
  1134  0007  00A3               	movwf	??_isr
  1135  0008  0804               	movf	4,w
  1136  0009  00A4               	movwf	??_isr+1
  1137  000A  080A               	movf	10,w
  1138  000B  00A5               	movwf	??_isr+2
  1139  000C  295B               	ljmp	_isr
  1140                           
  1141                           	psect	text8
  1142  00C7                     __ptext8:	
  1143 ;; *************** function _read_mode *****************
  1144 ;; Defined at:
  1145 ;;		line 275 in file "main.c"
  1146 ;; Parameters:    Size  Location     Type
  1147 ;;		None
  1148 ;; Auto vars:     Size  Location     Type
  1149 ;;		None
  1150 ;; Return value:  Size  Location     Type
  1151 ;;                  1    wreg      void 
  1152 ;; Registers used:
  1153 ;;		wreg, fsr0l, fsr0h, status,2, status,0
  1154 ;; Tracked objects:
  1155 ;;		On entry : 0/0
  1156 ;;		On exit  : 0/0
  1157 ;;		Unchanged: 0/0
  1158 ;; Data sizes:     COMMON   BANK0
  1159 ;;      Params:         0       0
  1160 ;;      Locals:         0       0
  1161 ;;      Temps:          0       3
  1162 ;;      Totals:         0       3
  1163 ;;Total ram usage:        3 bytes
  1164 ;; Hardware stack levels used:    1
  1165 ;; This function calls:
  1166 ;;		Nothing
  1167 ;; This function is called by:
  1168 ;;		_isr
  1169 ;; This function uses a non-reentrant model
  1170 ;;
  1171                           
  1172                           
  1173                           ;psect for function _read_mode
  1174  00C7                     _read_mode:	
  1175  00C7                     i1l1064:	
  1176                           ;incstack = 0
  1177                           ; Regs used in _read_mode: [wreg-fsr0h+status,2+status,0]
  1178                           
  1179                           
  1180                           ;main.c: 277:     count_button_press2 = 0;
  1181  00C7  1283               	bcf	3,5	;RP0=0, select bank0
  1182  00C8  01AD               	clrf	_count_button_press2
  1183  00C9  01AE               	clrf	_count_button_press2+1
  1184                           
  1185                           ;main.c: 279:     switch(modo_atual)
  1186  00CA  2947               	goto	i1l1116
  1187  00CB                     i1l1066:	
  1188                           
  1189                           ;main.c: 282:                                 count_button_press = 0;
  1190  00CB  01AF               	clrf	_count_button_press
  1191  00CC  01B0               	clrf	_count_button_press+1
  1192  00CD                     i1l1068:	
  1193                           
  1194                           ;main.c: 283:                                 modo_atual = modo_timer;
  1195  00CD  01B3               	clrf	_modo_atual
  1196  00CE  0AB3               	incf	_modo_atual,f
  1197  00CF                     i1l1070:	
  1198                           
  1199                           ;main.c: 284:                                 _delay((unsigned long)((1000)*(4000000/400
      +                          0.0)));
  1200  00CF  3006               	movlw	6
  1201  00D0  00A2               	movwf	??_read_mode+2
  1202  00D1  3013               	movlw	19
  1203  00D2  00A1               	movwf	??_read_mode+1
  1204  00D3  30AD               	movlw	173
  1205  00D4  00A0               	movwf	??_read_mode
  1206  00D5                     u59_27:	
  1207  00D5  0BA0               	decfsz	??_read_mode,f
  1208  00D6  28D5               	goto	u59_27
  1209  00D7  0BA1               	decfsz	??_read_mode+1,f
  1210  00D8  28D5               	goto	u59_27
  1211  00D9  0BA2               	decfsz	??_read_mode+2,f
  1212  00DA  28D5               	goto	u59_27
  1213  00DB  28DC               	nop2
  1214                           
  1215                           ;main.c: 285:                                 break;
  1216  00DC  295A               	goto	i1l129
  1217  00DD                     i1l1072:	
  1218                           
  1219                           ;main.c: 289:                                 {;main.c: 290:                            
      +                                   count_button_press++;
  1220  00DD  3001               	movlw	1
  1221  00DE  07AF               	addwf	_count_button_press,f
  1222  00DF  1803               	skipnc
  1223  00E0  0AB0               	incf	_count_button_press+1,f
  1224  00E1  3000               	movlw	0
  1225  00E2  07B0               	addwf	_count_button_press+1,f
  1226  00E3                     i1l1074:	
  1227                           
  1228                           ;main.c: 291:                                     if(count_button_press == 1000)
  1229  00E3  30E8               	movlw	232
  1230  00E4  062F               	xorwf	_count_button_press,w
  1231  00E5  3003               	movlw	3
  1232  00E6  1903               	skipnz
  1233  00E7  0630               	xorwf	_count_button_press+1,w
  1234  00E8  1D03               	btfss	3,2
  1235  00E9  28EB               	goto	u42_21
  1236  00EA  28EC               	goto	u42_20
  1237  00EB                     u42_21:	
  1238  00EB  28F4               	goto	i1l1080
  1239  00EC                     u42_20:	
  1240  00EC                     i1l1076:	
  1241                           
  1242                           ;main.c: 292:                                     {;main.c: 293:                        
      +                                           count_button_press2 ++;
  1243  00EC  3001               	movlw	1
  1244  00ED  07AD               	addwf	_count_button_press2,f
  1245  00EE  1803               	skipnc
  1246  00EF  0AAE               	incf	_count_button_press2+1,f
  1247  00F0  3000               	movlw	0
  1248  00F1  07AE               	addwf	_count_button_press2+1,f
  1249  00F2                     i1l1078:	
  1250                           
  1251                           ;main.c: 294:                                         count_button_press=0;
  1252  00F2  01AF               	clrf	_count_button_press
  1253  00F3  01B0               	clrf	_count_button_press+1
  1254  00F4                     i1l1080:	
  1255                           
  1256                           ;main.c: 288:                                 while(GP0==0 && count_button_press2<=100)
  1257  00F4  1805               	btfsc	5,0	;volatile
  1258  00F5  28F7               	goto	u43_21
  1259  00F6  28F8               	goto	u43_20
  1260  00F7                     u43_21:	
  1261  00F7  2901               	goto	i1l1084
  1262  00F8                     u43_20:	
  1263  00F8                     i1l1082:	
  1264  00F8  3000               	movlw	0
  1265  00F9  022E               	subwf	_count_button_press2+1,w
  1266  00FA  3065               	movlw	101
  1267  00FB  1903               	skipnz
  1268  00FC  022D               	subwf	_count_button_press2,w
  1269  00FD  1C03               	skipc
  1270  00FE  2900               	goto	u44_21
  1271  00FF  2901               	goto	u44_20
  1272  0100                     u44_21:	
  1273  0100  28DD               	goto	i1l1072
  1274  0101                     u44_20:	
  1275  0101                     i1l1084:	
  1276                           
  1277                           ;main.c: 297:                                 if(count_button_press2 >= 100)
  1278  0101  3000               	movlw	0
  1279  0102  022E               	subwf	_count_button_press2+1,w
  1280  0103  3064               	movlw	100
  1281  0104  1903               	skipnz
  1282  0105  022D               	subwf	_count_button_press2,w
  1283  0106  1C03               	skipc
  1284  0107  2909               	goto	u45_21
  1285  0108  290A               	goto	u45_20
  1286  0109                     u45_21:	
  1287  0109  2910               	goto	i1l1090
  1288  010A                     u45_20:	
  1289  010A                     i1l1086:	
  1290                           
  1291                           ;main.c: 298:                                 {;main.c: 299:                            
      +                                   modo_atual = modo_sempre_ligado;
  1292  010A  3002               	movlw	2
  1293  010B  00A0               	movwf	??_read_mode
  1294  010C  0820               	movf	??_read_mode,w
  1295  010D  00B3               	movwf	_modo_atual
  1296  010E                     i1l1088:	
  1297                           
  1298                           ;main.c: 300:                                     primeira_vez_loop = 1;
  1299  010E  01B1               	clrf	_primeira_vez_loop
  1300  010F  0AB1               	incf	_primeira_vez_loop,f
  1301  0110                     i1l1090:	
  1302                           
  1303                           ;main.c: 302:                                 count_button_press = 0;
  1304  0110  01AF               	clrf	_count_button_press
  1305  0111  01B0               	clrf	_count_button_press+1
  1306  0112                     i1l1092:	
  1307                           
  1308                           ;main.c: 303:                                 count_button_press2 = 0;
  1309  0112  01AD               	clrf	_count_button_press2
  1310  0113  01AE               	clrf	_count_button_press2+1
  1311                           
  1312                           ;main.c: 304:                                 break;
  1313  0114  295A               	goto	i1l129
  1314  0115                     i1l1094:	
  1315                           
  1316                           ;main.c: 309:                                     {;main.c: 310:                        
      +                                           count_button_press++;
  1317  0115  3001               	movlw	1
  1318  0116  07AF               	addwf	_count_button_press,f
  1319  0117  1803               	skipnc
  1320  0118  0AB0               	incf	_count_button_press+1,f
  1321  0119  3000               	movlw	0
  1322  011A  07B0               	addwf	_count_button_press+1,f
  1323  011B                     i1l1096:	
  1324                           
  1325                           ;main.c: 311:                                         if(count_button_press == 1000)
  1326  011B  30E8               	movlw	232
  1327  011C  062F               	xorwf	_count_button_press,w
  1328  011D  3003               	movlw	3
  1329  011E  1903               	skipnz
  1330  011F  0630               	xorwf	_count_button_press+1,w
  1331  0120  1D03               	btfss	3,2
  1332  0121  2923               	goto	u46_21
  1333  0122  2924               	goto	u46_20
  1334  0123                     u46_21:	
  1335  0123  292C               	goto	i1l1102
  1336  0124                     u46_20:	
  1337  0124                     i1l1098:	
  1338                           
  1339                           ;main.c: 312:                                         {;main.c: 313:                    
      +                                                   count_button_press2++;
  1340  0124  3001               	movlw	1
  1341  0125  07AD               	addwf	_count_button_press2,f
  1342  0126  1803               	skipnc
  1343  0127  0AAE               	incf	_count_button_press2+1,f
  1344  0128  3000               	movlw	0
  1345  0129  07AE               	addwf	_count_button_press2+1,f
  1346  012A                     i1l1100:	
  1347                           
  1348                           ;main.c: 314:                                             count_button_press=0;
  1349  012A  01AF               	clrf	_count_button_press
  1350  012B  01B0               	clrf	_count_button_press+1
  1351  012C                     i1l1102:	
  1352                           
  1353                           ;main.c: 308:                                     while(GP0==0 && count_button_press2 <=
      +                          100)
  1354  012C  1805               	btfsc	5,0	;volatile
  1355  012D  292F               	goto	u47_21
  1356  012E  2930               	goto	u47_20
  1357  012F                     u47_21:	
  1358  012F  2939               	goto	i1l1106
  1359  0130                     u47_20:	
  1360  0130                     i1l1104:	
  1361  0130  3000               	movlw	0
  1362  0131  022E               	subwf	_count_button_press2+1,w
  1363  0132  3065               	movlw	101
  1364  0133  1903               	skipnz
  1365  0134  022D               	subwf	_count_button_press2,w
  1366  0135  1C03               	skipc
  1367  0136  2938               	goto	u48_21
  1368  0137  2939               	goto	u48_20
  1369  0138                     u48_21:	
  1370  0138  2915               	goto	i1l1094
  1371  0139                     u48_20:	
  1372  0139                     i1l1106:	
  1373                           
  1374                           ;main.c: 317:                                     if(count_button_press2 >= 100)
  1375  0139  3000               	movlw	0
  1376  013A  022E               	subwf	_count_button_press2+1,w
  1377  013B  3064               	movlw	100
  1378  013C  1903               	skipnz
  1379  013D  022D               	subwf	_count_button_press2,w
  1380  013E  1C03               	skipc
  1381  013F  2941               	goto	u49_21
  1382  0140  2942               	goto	u49_20
  1383  0141                     u49_21:	
  1384  0141  2910               	goto	i1l1090
  1385  0142                     u49_20:	
  1386  0142                     i1l1108:	
  1387                           
  1388                           ;main.c: 318:                                     {;main.c: 319:                        
      +                                           modo_atual = modo_apagado;
  1389  0142  3003               	movlw	3
  1390  0143  00A0               	movwf	??_read_mode
  1391  0144  0820               	movf	??_read_mode,w
  1392  0145  00B3               	movwf	_modo_atual
  1393  0146  2910               	goto	i1l1090
  1394  0147                     i1l1116:	
  1395  0147  0833               	movf	_modo_atual,w
  1396  0148  00A0               	movwf	??_read_mode
  1397  0149  01A1               	clrf	??_read_mode+1
  1398                           
  1399                           ; Switch on 2 bytes has been partitioned into a top level switch of size 1, and 1 sub-sw
      +                          itches
  1400                           ; Switch size 1, requested type "simple"
  1401                           ; Number of cases is 1, Range of values is 0 to 0
  1402                           ; switch strategies available:
  1403                           ; Name         Instructions Cycles
  1404                           ; simple_byte            4     3 (average)
  1405                           ; direct_byte            7     6 (fixed)
  1406                           ; jumptable            260     6 (fixed)
  1407                           ;	Chosen strategy is simple_byte
  1408  014A  0821               	movf	??_read_mode+1,w
  1409  014B  3A00               	xorlw	0	; case 0
  1410  014C  1903               	skipnz
  1411  014D  294F               	goto	i1l1172
  1412  014E  295A               	goto	i1l129
  1413  014F                     i1l1172:	
  1414                           
  1415                           ; Switch size 1, requested type "simple"
  1416                           ; Number of cases is 3, Range of values is 0 to 2
  1417                           ; switch strategies available:
  1418                           ; Name         Instructions Cycles
  1419                           ; direct_byte            9     6 (fixed)
  1420                           ; simple_byte           10     6 (average)
  1421                           ; jumptable            260     6 (fixed)
  1422                           ;	Chosen strategy is simple_byte
  1423  014F  0820               	movf	??_read_mode,w
  1424  0150  3A00               	xorlw	0	; case 0
  1425  0151  1903               	skipnz
  1426  0152  28CB               	goto	i1l1066
  1427  0153  3A01               	xorlw	1	; case 1
  1428  0154  1903               	skipnz
  1429  0155  28F4               	goto	i1l1080
  1430  0156  3A03               	xorlw	3	; case 2
  1431  0157  1903               	skipnz
  1432  0158  292C               	goto	i1l1102
  1433  0159  295A               	goto	i1l129
  1434  015A                     i1l129:	
  1435  015A  0008               	return
  1436  015B                     __end_of_read_mode:	
  1437  005E                     btemp	set	94	;btemp
  1438  005E                     wtemp0	set	94


Data Sizes:
    Strings     0
    Constant    0
    Data        0
    BSS         7
    Persistent  0
    Stack       0

Auto Spaces:
    Space          Size  Autos    Used
    COMMON            0      0       0
    BANK0            62     13      20

Pointer List with Targets:

    None.

Critical Paths under _main in COMMON

    None.

Critical Paths under _isr in COMMON

    None.

Critical Paths under _main in BANK0

    _main->_mode_on

Critical Paths under _isr in BANK0

    _isr->_read_mode

Call Graph Tables:

 ---------------------------------------------------------------------------------
 (Depth) Function   	        Calls       Base Space   Used Autos Params    Refs
 ---------------------------------------------------------------------------------
 (0) _main                                                 0     0      0      95
                      _config_Timer1
                         _config_mcu
                         _config_osc
                         _config_var
                            _mode_on
 ---------------------------------------------------------------------------------
 (1) _mode_on                                              7     7      0      95
                                              6 BANK0      7     7      0
                      _modo_lowpower
 ---------------------------------------------------------------------------------
 (2) _modo_lowpower                                        0     0      0       0
 ---------------------------------------------------------------------------------
 (1) _config_var                                           0     0      0       0
 ---------------------------------------------------------------------------------
 (1) _config_osc                                           0     0      0       0
 ---------------------------------------------------------------------------------
 (1) _config_mcu                                           0     0      0       0
 ---------------------------------------------------------------------------------
 (1) _config_Timer1                                        0     0      0       0
 ---------------------------------------------------------------------------------
 Estimated maximum stack depth 2
 ---------------------------------------------------------------------------------
 (Depth) Function   	        Calls       Base Space   Used Autos Params    Refs
 ---------------------------------------------------------------------------------
 (3) _isr                                                  3     3      0       0
                                              3 BANK0      3     3      0
                          _read_mode
 ---------------------------------------------------------------------------------
 (4) _read_mode                                            3     3      0       0
                                              0 BANK0      3     3      0
 ---------------------------------------------------------------------------------
 Estimated maximum stack depth 4
 ---------------------------------------------------------------------------------

 Call Graph Graphs:

 _main (ROOT)
   _config_Timer1
   _config_mcu
   _config_osc
   _config_var
   _mode_on
     _modo_lowpower

 _isr (ROOT)
   _read_mode

 Address spaces:
Name               Size   Autos  Total    Cost      Usage
BITCOMMON            0      0       0       0        0.0%
EEDATA              80      0       0       0        0.0%
NULL                 0      0       0       0        0.0%
CODE                 0      0       0       0        0.0%
BITSFR0              0      0       0       1        0.0%
SFR0                 0      0       0       1        0.0%
COMMON               0      0       0       1        0.0%
BITSFR1              0      0       0       2        0.0%
SFR1                 0      0       0       2        0.0%
STACK                0      0       0       2        0.0%
BITBANK0            3E      0       0       3        0.0%
BANK0               3E      D      14       4       32.3%
ABS                  0      0      14       5        0.0%
DATA                 0      0      14       6        0.0%


Microchip Technology PIC Macro Assembler V2.10 build 88905656 
Symbol Table                                                                                   Mon Feb 17 16:10:49 2020

            __CFG_CP$OFF 0000                       l80 0198                       l83 01B1  
                     l91 0028                       l77 01B6                       l86 01A3  
                    l102 00A0                      l107 00C6                      l132 01BA  
                    l960 019C                      l952 01B7                      l962 019D  
                    l970 0185                      l954 01B2                      l964 019E  
                    l980 0191                      l972 0187                      l956 01AB  
                    _GP0 0028                      _GP1 0029                      l966 019F  
                    l958 0199                      l990 0197                      l982 0192  
                    l974 018A                      _GP2 002A                      l968 01A1  
                    l984 0193                      l976 018E                      l992 0018  
                    _GP4 002C                      _GP5 002D                      l986 0194  
                    l978 0190                      l994 001E                      _GIE 005F  
                    l988 0195                      l996 0026                      l998 002A  
                    u300 003D                      u301 003C                      u310 004D  
                    u311 004C                      u400 00B2                      u320 0054  
                    u401 00B1                      u321 0053                      u410 00B8  
                    u330 006A                      u411 00B7                      u331 0069  
                    u340 006F                      u341 006E                      u350 0075  
                    u351 0074                      u360 007F                      u280 001E  
                    u361 007E                      u281 001D                      u370 0086  
                    u290 002F             __CFG_CPD$OFF 0000                      u371 0085  
                    u291 002E                      u380 009D                      u381 009C  
                    u390 00A4                      u391 00A3                      u557 005B  
                    u567 008D                      u577 00A8                      u587 00BE  
                    _WPU 0095                      _isr 015B                      fsr0 0004  
  __end_of_modo_lowpower 01BB                     l1000 002F                     l1002 0035  
                   l1010 0047                     l1012 004D                     l1004 0036  
                   l1020 0064                     l1030 007F                     l1022 006A  
                   l1014 0054                     l1006 0037                     l1040 0094  
                   l1032 0080                     l1024 006F                     l1016 0055  
                   l1008 003D                     l1050 009F                     l1042 0096  
                   l1034 0081                     l1026 0075                     l1018 0062  
                   l1122 01A4                     l1060 00B8                     l1052 00A4  
                   l1036 0086                     l1044 0097                     l1028 0079  
                   l1124 01A6                     l1062 00C5                     l1054 00AD  
                   l1046 009D                     l1038 0087                     l1126 01A7  
                   l1056 00B2                     l1048 009E                     l1128 01A8  
                   l1058 00B3                     ?_isr 0020                     _IOC0 04B0  
                   _GPIE 005B                     _GPIF 0058                     _PEIE 005E  
                   _main 01A4                     btemp 005E            __CFG_BOREN$ON 0000  
                   start 000D                    ??_isr 0023                    OSCCAL 0090  
                  STATUS 0003                    ?_main 0020            __CFG_WDTE$OFF 0000  
                  _CMCON 0019                    _ANSEL 009F                    _T1CON 0010  
                  i1l140 017B                    i1l129 015A                    _TMR1H 000F  
                  _TMR1L 000E                    u42_20 00EC                    u50_20 015F  
                  u42_21 00EB                    u50_21 015E                    u43_20 00F8  
                  u51_20 0163                    u43_21 00F7                    u51_21 0162  
                  u44_20 0101                    u52_20 0168                    u44_21 0100  
                  u52_21 0167                    u45_20 010A                    u53_20 0170  
                  u45_21 0109                    u53_21 016F                    u46_20 0124  
                  u54_20 0175                    u46_21 0123                    u54_21 0174  
                  u47_20 0130                    u47_21 012F                    u48_20 0139  
                  u48_21 0138                    u49_20 0142                    u49_21 0141  
                  u59_27 00D5          ??_config_Timer1 0000          __end_of_mode_on 00C7  
                  pclath 000A                    status 0003                    wtemp0 005E  
         __CFG_MCLRE$OFF 0000          __initialization 000E             __end_of_main 01AB  
      _primeira_vez_loop 0031                   ??_main 0000                   i1l1100 012A  
                 i1l1102 012C                   i1l1104 0130                   i1l1106 0139  
                 i1l1130 015B                   i1l1108 0142                   i1l1116 0147  
                 i1l1140 016A                   i1l1132 015F                   i1l1070 00CF  
                 i1l1150 017A                   i1l1134 0163                   i1l1142 016B  
                 i1l1080 00F4                   i1l1072 00DD                   i1l1064 00C7  
                 i1l1144 0170                   i1l1136 0168                   i1l1090 0110  
                 i1l1082 00F8                   i1l1074 00E3                   i1l1066 00CB  
                 i1l1146 0175                   i1l1138 0169                   i1l1172 014F  
                 i1l1092 0112                   i1l1084 0101                   i1l1076 00EC  
                 i1l1068 00CD                   i1l1148 0178                   i1l1094 0115  
                 i1l1086 010A                   i1l1078 00F2                   i1l1096 011B  
                 i1l1088 010E                   i1l1098 0124                   _TMR1IE 0460  
                 _TMR1IF 0060                   _TMR1ON 0080                   _TRISIO 0085  
         __CFG_PWRTE$OFF 0000                ??_mode_on 0026                   saved_w 005E  
__end_of__initialization 0016           __pcstackCOMMON 0000               __pbssBANK0 002D  
     __size_of_read_mode 0094               __pmaintext 01A4               __pintentry 0004  
             _config_mcu 0185               _config_osc 01B2               _config_var 01AB  
 __size_of_modo_lowpower 0004                  __ptext1 0018                  __ptext2 01B7  
                __ptext3 01AB                  __ptext4 01B2                  __ptext5 0185  
                __ptext6 0199                  __ptext7 015B                  __ptext8 00C7  
           __size_of_isr 002A                  _mode_on 0018        __end_of_read_mode 015B  
             _modo_atual 0033    __end_of_config_Timer1 01A4     end_of_initialization 0016  
 mode_on@timer_count_min 0029   mode_on@timer_count_seg 002B              ?_config_mcu 0020  
            ?_config_osc 0020              ?_config_var 0020            _modo_lowpower 01B7  
    start_initialization 000E           ?_modo_lowpower 0020              __end_of_isr 0185  
    __size_of_config_mcu 0014      __size_of_config_osc 0005      __size_of_config_var 0007  
              ___latbits 0000            __pcstackBANK0 0020          ??_modo_lowpower 0000  
               ?_mode_on 0020                _read_mode 00C7        interrupt_function 0004  
              _timer_out 0032             ??_config_mcu 0000             ??_config_osc 0000  
           ??_config_var 0000               ?_read_mode 0020       __end_of_config_mcu 0199  
     __end_of_config_osc 01B7       __end_of_config_var 01B2   __size_of_config_Timer1 000B  
       __size_of_mode_on 00AF            __size_of_main 0007              ??_read_mode 0020  
               intlevel1 0000            _config_Timer1 0199      _count_button_press2 002D  
         ?_config_Timer1 0020       _count_button_press 002F        __CFG_FOSC$INTRCIO 0000  
